; Function Attrs: mustprogress uwtable
define ptr @_ZN32pxrInternal_v0_24__pxrReserved__17UsdSchemaRegistry33GetConcreteTypeFromSchemaTypeNameERKNS_7TfTokenE(ptr nocapture noundef nonnull readonly align 8 dereferenceable(8) %0) local_unnamed_addr #0 align 2 {
  %2 = alloca %"class.pxrInternal_v0_24__pxrReserved__::TfType", align 8
  %3 = tail call noundef ptr @_ZN32pxrInternal_v0_24__pxrReserved__17UsdSchemaRegistry14FindSchemaInfoERKNS_7TfTokenE(ptr noundef nonnull align 8 dereferenceable(8) %0)
  %.not = icmp eq ptr %3, null
  br i1 %.not, label %12, label %4

4:                                                ; preds = %1
  %5 = getelementptr inbounds nuw i8, ptr %3, i64 28
  %6 = load i32, ptr %5, align 4
  %7 = icmp eq i32 %6, 3
  br i1 %7, label %8, label %12

8:                                                ; preds = %4
  %9 = getelementptr inbounds nuw i8, ptr %3, i64 8
  %10 = load i64, ptr %9, align 8
  %11 = inttoptr i64 %10 to ptr
  br label %13

12:                                               ; preds = %4, %1
  call void @_ZN32pxrInternal_v0_24__pxrReserved__6TfTypeC1Ev(ptr noundef nonnull align 8 dereferenceable(8) %2)
  %.pre = load ptr, ptr %2, align 8
  br label %13

13:                                               ; preds = %12, %8
  %14 = phi ptr [ %.pre, %12 ], [ %11, %8 ]
  ret ptr %14
}